target datalayout = "e-m:e-p270:32:32-p271:32:32-p272:64:64-i64:64-i128:128-f80:128-n8:16:32:64-S128"
target triple = "x86_64-unknown-linux-gnu"

@_ZN19OpenColorIO_v2_4devL17V1_2_FWD_CLF_NAMEE = internal constant [4 x i8] c"Fwd\00", align 1
@_ZN19OpenColorIO_v2_4devL17V1_2_REV_CLF_NAMEE = internal constant [4 x i8] c"Rev\00", align 1
@_ZN19OpenColorIO_v2_4devL21NO_CLAMP_FWD_CLF_NAMEE = internal constant [11 x i8] c"FwdNoClamp\00", align 1
@_ZN19OpenColorIO_v2_4devL21NO_CLAMP_REV_CLF_NAMEE = internal constant [11 x i8] c"RevNoClamp\00", align 1
@.str = private unnamed_addr constant [23 x i8] c"Unknown style for CDL.\00", align 1
@_ZTIN19OpenColorIO_v2_4dev9ExceptionE = external constant ptr

; Function Attrs: mustprogress uwtable
define hidden noundef ptr @_ZN19OpenColorIO_v2_4dev9CDLOpData12GetStyleNameENS0_5StyleE(i32 noundef %style) #4 align 2 personality ptr @__gxx_personality_v0 {
entry:
  %retval = alloca ptr, align 8
  %style.addr = alloca i32, align 4
  %exn.slot = alloca ptr, align 8
  %ehselector.slot = alloca i32, align 4
  store i32 %style, ptr %style.addr, align 4
  %0 = load i32, ptr %style.addr, align 4
  switch i32 %0, label %sw.epilog [
    i32 0, label %sw.bb
    i32 1, label %sw.bb1
    i32 2, label %sw.bb2
    i32 3, label %sw.bb3
  ]

sw.bb:                                            ; preds = %entry
  store ptr @_ZN19OpenColorIO_v2_4devL17V1_2_FWD_CLF_NAMEE, ptr %retval, align 8
  br label %return

sw.bb1:                                           ; preds = %entry
  store ptr @_ZN19OpenColorIO_v2_4devL17V1_2_REV_CLF_NAMEE, ptr %retval, align 8
  br label %return

sw.bb2:                                           ; preds = %entry
  store ptr @_ZN19OpenColorIO_v2_4devL21NO_CLAMP_FWD_CLF_NAMEE, ptr %retval, align 8
  br label %return

sw.bb3:                                           ; preds = %entry
  store ptr @_ZN19OpenColorIO_v2_4devL21NO_CLAMP_REV_CLF_NAMEE, ptr %retval, align 8
  br label %return

sw.epilog:                                        ; preds = %entry
  %exception = call ptr @__cxa_allocate_exception(i64 16) #3
  invoke void @_ZN19OpenColorIO_v2_4dev9ExceptionC1EPKc(ptr noundef nonnull align 8 dereferenceable(16) %exception, ptr noundef @.str)
          to label %invoke.cont unwind label %lpad

invoke.cont:                                      ; preds = %sw.epilog
  call void @__cxa_throw(ptr %exception, ptr @_ZTIN19OpenColorIO_v2_4dev9ExceptionE, ptr @_ZN19OpenColorIO_v2_4dev9ExceptionD1Ev) #13
  unreachable

lpad:                                             ; preds = %sw.epilog
  %1 = landingpad { ptr, i32 }
          cleanup
  %2 = extractvalue { ptr, i32 } %1, 0
  store ptr %2, ptr %exn.slot, align 8
  %3 = extractvalue { ptr, i32 } %1, 1
  store i32 %3, ptr %ehselector.slot, align 4
  call void @__cxa_free_exception(ptr %exception) #3
  br label %eh.resume

return:                                           ; preds = %sw.bb3, %sw.bb2, %sw.bb1, %sw.bb
  %4 = load ptr, ptr %retval, align 8
  ret ptr %4

eh.resume:                                        ; preds = %lpad
  %exn = load ptr, ptr %exn.slot, align 8
  %sel = load i32, ptr %ehselector.slot, align 4
  %lpad.val = insertvalue { ptr, i32 } poison, ptr %exn, 0
  %lpad.val4 = insertvalue { ptr, i32 } %lpad.val, i32 %sel, 1
  resume { ptr, i32 } %lpad.val4
}