; Function Attrs: mustprogress uwtable
define hidden noundef nonnull ptr @_ZN19OpenColorIO_v2_4dev9CDLOpData12GetStyleNameENS0_5StyleE(i32 noundef %style) local_unnamed_addr #3 align 2 personality ptr @__gxx_personality_v0 {
entry:
  %0 = icmp ult i32 %style, 4
  br i1 %0, label %switch.lookup, label %sw.epilog

sw.epilog:                                        ; preds = %entry
  %exception = tail call ptr @__cxa_allocate_exception(i64 16) #19
  invoke void @_ZN19OpenColorIO_v2_4dev9ExceptionC1EPKc(ptr noundef nonnull align 8 dereferenceable(16) %exception, ptr noundef nonnull @.str)
          to label %invoke.cont unwind label %lpad

invoke.cont:                                      ; preds = %sw.epilog
  tail call void @__cxa_throw(ptr nonnull %exception, ptr nonnull @_ZTIN19OpenColorIO_v2_4dev9ExceptionE, ptr nonnull @_ZN19OpenColorIO_v2_4dev9ExceptionD1Ev) #20
  unreachable

lpad:                                             ; preds = %sw.epilog
  %1 = landingpad { ptr, i32 }
          cleanup
  tail call void @__cxa_free_exception(ptr %exception) #19
  resume { ptr, i32 } %1

switch.lookup:                                    ; preds = %entry
  %2 = zext nneg i32 %style to i64
  %switch.gep = getelementptr inbounds [4 x ptr], ptr @switch.table._ZNK19OpenColorIO_v2_4dev9CDLOpData10getCacheIDB5cxx11Ev, i64 0, i64 %2
  %switch.load = load ptr, ptr %switch.gep, align 8
  ret ptr %switch.load
}